; Function Attrs: mustprogress uwtable
define noundef i64 @_ZNK9grpc_core19ServiceConfigParser14GetParserIndexESt17basic_string_viewIcSt11char_traitsIcEE(ptr noundef nonnull readonly align 8 captures(none) dereferenceable(24) %0, i64 %1, ptr readonly captures(none) %2) local_unnamed_addr #4 align 2 personality ptr @__gxx_personality_v0 {
  %4 = getelementptr inbounds nuw i8, ptr %0, i64 8
  %5 = load ptr, ptr %4, align 8, !tbaa !9
  %6 = load ptr, ptr %0, align 8, !tbaa !3
  %.not12.not = icmp eq ptr %5, %6
  br i1 %.not12.not, label %_ZSteqIcSt11char_traitsIcEEbSt17basic_string_viewIT_T0_ES5_.exit, label %.lr.ph.preheader

.lr.ph.preheader:                                 ; preds = %3
  %7 = icmp eq i64 %1, 0
  br label %.lr.ph

.lr.ph:                                           ; preds = %.lr.ph.preheader, %20
  %8 = phi ptr [ %23, %20 ], [ %6, %.lr.ph.preheader ]
  %.01013 = phi i64 [ %21, %20 ], [ 0, %.lr.ph.preheader ]
  %9 = getelementptr inbounds nuw %"class.std::unique_ptr", ptr %8, i64 %.01013
  %10 = load ptr, ptr %9, align 8, !tbaa !12
  %11 = load ptr, ptr %10, align 8, !tbaa !14
  %12 = getelementptr inbounds nuw i8, ptr %11, i64 16
  %13 = load ptr, ptr %12, align 8
  %14 = tail call { i64, ptr } %13(ptr noundef nonnull align 8 dereferenceable(8) %10)
  %15 = extractvalue { i64, ptr } %14, 0
  %16 = extractvalue { i64, ptr } %14, 1
  %17 = icmp eq i64 %15, %1
  br i1 %17, label %18, label %20

18:                                               ; preds = %.lr.ph
  br i1 %7, label %_ZSteqIcSt11char_traitsIcEEbSt17basic_string_viewIT_T0_ES5_.exit, label %_ZNSt11char_traitsIcE7compareEPKcS2_m.exit.i.i

_ZNSt11char_traitsIcE7compareEPKcS2_m.exit.i.i:   ; preds = %18
  %bcmp.i = tail call i32 @bcmp(ptr %16, ptr %2, i64 %1)
  %19 = icmp eq i32 %bcmp.i, 0
  br i1 %19, label %_ZSteqIcSt11char_traitsIcEEbSt17basic_string_viewIT_T0_ES5_.exit, label %20

20:                                               ; preds = %.lr.ph, %_ZNSt11char_traitsIcE7compareEPKcS2_m.exit.i.i
  %21 = add nuw i64 %.01013, 1
  %22 = load ptr, ptr %4, align 8, !tbaa !9
  %23 = load ptr, ptr %0, align 8, !tbaa !3
  %24 = ptrtoint ptr %22 to i64
  %25 = ptrtoint ptr %23 to i64
  %26 = sub i64 %24, %25
  %27 = ashr exact i64 %26, 3
  %.not = icmp ult i64 %21, %27
  br i1 %.not, label %.lr.ph, label %_ZSteqIcSt11char_traitsIcEEbSt17basic_string_viewIT_T0_ES5_.exit, !llvm.loop !36

_ZSteqIcSt11char_traitsIcEEbSt17basic_string_viewIT_T0_ES5_.exit: ; preds = %20, %18, %_ZNSt11char_traitsIcE7compareEPKcS2_m.exit.i.i, %3
  %spec.select = phi i64 [ -1, %3 ], [ %.01013, %_ZNSt11char_traitsIcE7compareEPKcS2_m.exit.i.i ], [ %.01013, %18 ], [ -1, %20 ]
  ret i64 %spec.select
}